target datalayout = "e-m:e-p270:32:32-p271:32:32-p272:64:64-i64:64-i128:128-f80:128-n8:16:32:64-S128"
target triple = "x86_64-pc-linux-gnu"

%struct.ZSTDv07_customMem = type { ptr, ptr, ptr }
%struct.ZSTDv07_DCtx_s = type { [513 x i32], [257 x i32], [513 x i32], [4097 x i32], ptr, ptr, ptr, ptr, i64, [3 x i32], %struct.ZSTDv07_frameParams, i32, i32, i32, i32, %struct.XXH64_state_s, i64, i32, ptr, %struct.ZSTDv07_customMem, i64, [131080 x i8], [18 x i8] }
%struct.ZSTDv07_frameParams = type { i64, i32, i32, i32 }
%struct.XXH64_state_s = type { i64, [4 x i64], [4 x i64], i32, i32, i64 }
%struct.ZSTDv07_DDict_s = type { ptr, i64, ptr }

@repStartValue = internal constant [3 x i32] [i32 1, i32 4, i32 8], align 4
@defaultCustomMem = internal constant %struct.ZSTDv07_customMem { ptr @ZSTDv07_defaultAllocFunction, ptr @ZSTDv07_defaultFreeFunction, ptr null }, align 8

; Function Attrs: nounwind uwtable
define i64 @ZSTDv07_decompressBegin(ptr noundef %0) #0 {
  %2 = alloca ptr, align 8
  %3 = alloca i32, align 4
  store ptr %0, ptr %2, align 8, !tbaa !67
  %4 = load ptr, ptr %2, align 8, !tbaa !67
  %5 = getelementptr inbounds nuw %struct.ZSTDv07_DCtx_s, ptr %4, i32 0, i32 8
  store i64 5, ptr %5, align 8, !tbaa !69
  %6 = load ptr, ptr %2, align 8, !tbaa !67
  %7 = getelementptr inbounds nuw %struct.ZSTDv07_DCtx_s, ptr %6, i32 0, i32 12
  store i32 0, ptr %7, align 4, !tbaa !75
  %8 = load ptr, ptr %2, align 8, !tbaa !67
  %9 = getelementptr inbounds nuw %struct.ZSTDv07_DCtx_s, ptr %8, i32 0, i32 4
  store ptr null, ptr %9, align 8, !tbaa !76
  %10 = load ptr, ptr %2, align 8, !tbaa !67
  %11 = getelementptr inbounds nuw %struct.ZSTDv07_DCtx_s, ptr %10, i32 0, i32 5
  store ptr null, ptr %11, align 8, !tbaa !77
  %12 = load ptr, ptr %2, align 8, !tbaa !67
  %13 = getelementptr inbounds nuw %struct.ZSTDv07_DCtx_s, ptr %12, i32 0, i32 6
  store ptr null, ptr %13, align 8, !tbaa !78
  %14 = load ptr, ptr %2, align 8, !tbaa !67
  %15 = getelementptr inbounds nuw %struct.ZSTDv07_DCtx_s, ptr %14, i32 0, i32 7
  store ptr null, ptr %15, align 8, !tbaa !79
  %16 = load ptr, ptr %2, align 8, !tbaa !67
  %17 = getelementptr inbounds nuw %struct.ZSTDv07_DCtx_s, ptr %16, i32 0, i32 3
  %18 = getelementptr inbounds [4097 x i32], ptr %17, i64 0, i64 0
  store i32 201326604, ptr %18, align 4, !tbaa !15
  %19 = load ptr, ptr %2, align 8, !tbaa !67
  %20 = getelementptr inbounds nuw %struct.ZSTDv07_DCtx_s, ptr %19, i32 0, i32 14
  store i32 0, ptr %20, align 4, !tbaa !80
  %21 = load ptr, ptr %2, align 8, !tbaa !67
  %22 = getelementptr inbounds nuw %struct.ZSTDv07_DCtx_s, ptr %21, i32 0, i32 13
  store i32 0, ptr %22, align 8, !tbaa !81
  %23 = load ptr, ptr %2, align 8, !tbaa !67
  %24 = getelementptr inbounds nuw %struct.ZSTDv07_DCtx_s, ptr %23, i32 0, i32 17
  store i32 0, ptr %24, align 8, !tbaa !82
  call void @llvm.lifetime.start.p0(i64 4, ptr %3) #11
  store i32 0, ptr %3, align 4, !tbaa !15
  br label %25

25:                                               ; preds = %38, %1
  %26 = load i32, ptr %3, align 4, !tbaa !15
  %27 = icmp slt i32 %26, 3
  br i1 %27, label %28, label %41

28:                                               ; preds = %25
  %29 = load i32, ptr %3, align 4, !tbaa !15
  %30 = sext i32 %29 to i64
  %31 = getelementptr inbounds [3 x i32], ptr @repStartValue, i64 0, i64 %30
  %32 = load i32, ptr %31, align 4, !tbaa !15
  %33 = load ptr, ptr %2, align 8, !tbaa !67
  %34 = getelementptr inbounds nuw %struct.ZSTDv07_DCtx_s, ptr %33, i32 0, i32 9
  %35 = load i32, ptr %3, align 4, !tbaa !15
  %36 = sext i32 %35 to i64
  %37 = getelementptr inbounds [3 x i32], ptr %34, i64 0, i64 %36
  store i32 %32, ptr %37, align 4, !tbaa !15
  br label %38

38:                                               ; preds = %28
  %39 = load i32, ptr %3, align 4, !tbaa !15
  %40 = add nsw i32 %39, 1
  store i32 %40, ptr %3, align 4, !tbaa !15
  br label %25, !llvm.loop !83

41:                                               ; preds = %25
  call void @llvm.lifetime.end.p0(i64 4, ptr %3) #11
  ret i64 0
}

; Function Attrs: nounwind uwtable
define internal i32 @ERR_isError(i64 noundef %0) #0 {
  %2 = alloca i64, align 8
  store i64 %0, ptr %2, align 8, !tbaa !3
  %3 = load i64, ptr %2, align 8, !tbaa !3
  %4 = icmp ugt i64 %3, -120
  %5 = zext i1 %4 to i32
  ret i32 %5
}

; Function Attrs: nounwind uwtable
define ptr @ZSTDv07_createDCtx_advanced(ptr noundef byval(%struct.ZSTDv07_customMem) align 8 %0) #0 {
  %2 = alloca ptr, align 8
  %3 = alloca ptr, align 8
  %4 = alloca i32, align 4
  call void @llvm.lifetime.start.p0(i64 8, ptr %3) #11
  %5 = getelementptr inbounds nuw %struct.ZSTDv07_customMem, ptr %0, i32 0, i32 0
  %6 = load ptr, ptr %5, align 8, !tbaa !84
  %7 = icmp ne ptr %6, null
  br i1 %7, label %13, label %8

8:                                                ; preds = %1
  %9 = getelementptr inbounds nuw %struct.ZSTDv07_customMem, ptr %0, i32 0, i32 1
  %10 = load ptr, ptr %9, align 8, !tbaa !85
  %11 = icmp ne ptr %10, null
  br i1 %11, label %13, label %12

12:                                               ; preds = %8
  call void @llvm.memcpy.p0.p0.i64(ptr align 8 %0, ptr align 8 @defaultCustomMem, i64 24, i1 false), !tbaa.struct !86
  br label %13

13:                                               ; preds = %12, %8, %1
  %14 = getelementptr inbounds nuw %struct.ZSTDv07_customMem, ptr %0, i32 0, i32 0
  %15 = load ptr, ptr %14, align 8, !tbaa !84
  %16 = icmp ne ptr %15, null
  br i1 %16, label %17, label %21

17:                                               ; preds = %13
  %18 = getelementptr inbounds nuw %struct.ZSTDv07_customMem, ptr %0, i32 0, i32 1
  %19 = load ptr, ptr %18, align 8, !tbaa !85
  %20 = icmp ne ptr %19, null
  br i1 %20, label %22, label %21

21:                                               ; preds = %17, %13
  store ptr null, ptr %2, align 8
  store i32 1, ptr %4, align 4
  br label %37

22:                                               ; preds = %17
  %23 = getelementptr inbounds nuw %struct.ZSTDv07_customMem, ptr %0, i32 0, i32 0
  %24 = load ptr, ptr %23, align 8, !tbaa !84
  %25 = getelementptr inbounds nuw %struct.ZSTDv07_customMem, ptr %0, i32 0, i32 2
  %26 = load ptr, ptr %25, align 8, !tbaa !87
  %27 = call ptr %24(ptr noundef %26, i64 noundef 152864)
  store ptr %27, ptr %3, align 8, !tbaa !67
  %28 = load ptr, ptr %3, align 8, !tbaa !67
  %29 = icmp ne ptr %28, null
  br i1 %29, label %31, label %30

30:                                               ; preds = %22
  store ptr null, ptr %2, align 8
  store i32 1, ptr %4, align 4
  br label %37

31:                                               ; preds = %22
  %32 = load ptr, ptr %3, align 8, !tbaa !67
  %33 = getelementptr inbounds nuw %struct.ZSTDv07_DCtx_s, ptr %32, i32 0, i32 19
  call void @llvm.memcpy.p0.p0.i64(ptr align 8 %33, ptr align 8 %0, i64 24, i1 false)
  %34 = load ptr, ptr %3, align 8, !tbaa !67
  %35 = call i64 @ZSTDv07_decompressBegin(ptr noundef %34)
  %36 = load ptr, ptr %3, align 8, !tbaa !67
  store ptr %36, ptr %2, align 8
  store i32 1, ptr %4, align 4
  br label %37

37:                                               ; preds = %31, %30, %21
  call void @llvm.lifetime.end.p0(i64 8, ptr %3) #11
  %38 = load ptr, ptr %2, align 8
  ret ptr %38
}

; Function Attrs: nounwind uwtable
define internal ptr @ZSTDv07_createDDict_advanced(ptr noundef %0, i64 noundef %1, ptr noundef byval(%struct.ZSTDv07_customMem) align 8 %2) #0 {
  %4 = alloca ptr, align 8
  %5 = alloca ptr, align 8
  %6 = alloca i64, align 8
  %7 = alloca ptr, align 8
  %8 = alloca ptr, align 8
  %9 = alloca ptr, align 8
  %10 = alloca i32, align 4
  %11 = alloca i64, align 8
  store ptr %0, ptr %5, align 8, !tbaa !12
  store i64 %1, ptr %6, align 8, !tbaa !3
  %12 = getelementptr inbounds nuw %struct.ZSTDv07_customMem, ptr %2, i32 0, i32 0
  %13 = load ptr, ptr %12, align 8, !tbaa !84
  %14 = icmp ne ptr %13, null
  br i1 %14, label %20, label %15

15:                                               ; preds = %3
  %16 = getelementptr inbounds nuw %struct.ZSTDv07_customMem, ptr %2, i32 0, i32 1
  %17 = load ptr, ptr %16, align 8, !tbaa !85
  %18 = icmp ne ptr %17, null
  br i1 %18, label %20, label %19

19:                                               ; preds = %15
  call void @llvm.memcpy.p0.p0.i64(ptr align 8 %2, ptr align 8 @defaultCustomMem, i64 24, i1 false), !tbaa.struct !86
  br label %20

20:                                               ; preds = %19, %15, %3
  %21 = getelementptr inbounds nuw %struct.ZSTDv07_customMem, ptr %2, i32 0, i32 0
  %22 = load ptr, ptr %21, align 8, !tbaa !84
  %23 = icmp ne ptr %22, null
  br i1 %23, label %24, label %28

24:                                               ; preds = %20
  %25 = getelementptr inbounds nuw %struct.ZSTDv07_customMem, ptr %2, i32 0, i32 1
  %26 = load ptr, ptr %25, align 8, !tbaa !85
  %27 = icmp ne ptr %26, null
  br i1 %27, label %29, label %28

28:                                               ; preds = %24, %20
  store ptr null, ptr %4, align 8
  br label %108

29:                                               ; preds = %24
  call void @llvm.lifetime.start.p0(i64 8, ptr %7) #11
  %30 = getelementptr inbounds nuw %struct.ZSTDv07_customMem, ptr %2, i32 0, i32 0
  %31 = load ptr, ptr %30, align 8, !tbaa !84
  %32 = getelementptr inbounds nuw %struct.ZSTDv07_customMem, ptr %2, i32 0, i32 2
  %33 = load ptr, ptr %32, align 8, !tbaa !87
  %34 = call ptr %31(ptr noundef %33, i64 noundef 24)
  store ptr %34, ptr %7, align 8, !tbaa !103
  call void @llvm.lifetime.start.p0(i64 8, ptr %8) #11
  %35 = getelementptr inbounds nuw %struct.ZSTDv07_customMem, ptr %2, i32 0, i32 0
  %36 = load ptr, ptr %35, align 8, !tbaa !84
  %37 = getelementptr inbounds nuw %struct.ZSTDv07_customMem, ptr %2, i32 0, i32 2
  %38 = load ptr, ptr %37, align 8, !tbaa !87
  %39 = load i64, ptr %6, align 8, !tbaa !3
  %40 = call ptr %36(ptr noundef %38, i64 noundef %39)
  store ptr %40, ptr %8, align 8, !tbaa !12
  call void @llvm.lifetime.start.p0(i64 8, ptr %9) #11
  %41 = call ptr @ZSTDv07_createDCtx_advanced(ptr noundef byval(%struct.ZSTDv07_customMem) align 8 %2)
  store ptr %41, ptr %9, align 8, !tbaa !67
  %42 = load ptr, ptr %8, align 8, !tbaa !12
  %43 = icmp ne ptr %42, null
  br i1 %43, label %44, label %50

44:                                               ; preds = %29
  %45 = load ptr, ptr %7, align 8, !tbaa !103
  %46 = icmp ne ptr %45, null
  br i1 %46, label %47, label %50

47:                                               ; preds = %44
  %48 = load ptr, ptr %9, align 8, !tbaa !67
  %49 = icmp ne ptr %48, null
  br i1 %49, label %66, label %50

50:                                               ; preds = %47, %44, %29
  %51 = getelementptr inbounds nuw %struct.ZSTDv07_customMem, ptr %2, i32 0, i32 1
  %52 = load ptr, ptr %51, align 8, !tbaa !85
  %53 = getelementptr inbounds nuw %struct.ZSTDv07_customMem, ptr %2, i32 0, i32 2
  %54 = load ptr, ptr %53, align 8, !tbaa !87
  %55 = load ptr, ptr %8, align 8, !tbaa !12
  call void %52(ptr noundef %54, ptr noundef %55)
  %56 = getelementptr inbounds nuw %struct.ZSTDv07_customMem, ptr %2, i32 0, i32 1
  %57 = load ptr, ptr %56, align 8, !tbaa !85
  %58 = getelementptr inbounds nuw %struct.ZSTDv07_customMem, ptr %2, i32 0, i32 2
  %59 = load ptr, ptr %58, align 8, !tbaa !87
  %60 = load ptr, ptr %7, align 8, !tbaa !103
  call void %57(ptr noundef %59, ptr noundef %60)
  %61 = getelementptr inbounds nuw %struct.ZSTDv07_customMem, ptr %2, i32 0, i32 1
  %62 = load ptr, ptr %61, align 8, !tbaa !85
  %63 = getelementptr inbounds nuw %struct.ZSTDv07_customMem, ptr %2, i32 0, i32 2
  %64 = load ptr, ptr %63, align 8, !tbaa !87
  %65 = load ptr, ptr %9, align 8, !tbaa !67
  call void %62(ptr noundef %64, ptr noundef %65)
  store ptr null, ptr %4, align 8
  store i32 1, ptr %10, align 4
  br label %107

66:                                               ; preds = %47
  %67 = load ptr, ptr %8, align 8, !tbaa !12
  %68 = load ptr, ptr %5, align 8, !tbaa !12
  %69 = load i64, ptr %6, align 8, !tbaa !3
  call void @llvm.memcpy.p0.p0.i64(ptr align 1 %67, ptr align 1 %68, i64 %69, i1 false)
  call void @llvm.lifetime.start.p0(i64 8, ptr %11) #11
  %70 = load ptr, ptr %9, align 8, !tbaa !67
  %71 = load ptr, ptr %8, align 8, !tbaa !12
  %72 = load i64, ptr %6, align 8, !tbaa !3
  %73 = call i64 @ZSTDv07_decompressBegin_usingDict(ptr noundef %70, ptr noundef %71, i64 noundef %72)
  store i64 %73, ptr %11, align 8, !tbaa !3
  %74 = load i64, ptr %11, align 8, !tbaa !3
  %75 = call i32 @ERR_isError(i64 noundef %74)
  %76 = icmp ne i32 %75, 0
  br i1 %76, label %77, label %93

77:                                               ; preds = %66
  %78 = getelementptr inbounds nuw %struct.ZSTDv07_customMem, ptr %2, i32 0, i32 1
  %79 = load ptr, ptr %78, align 8, !tbaa !85
  %80 = getelementptr inbounds nuw %struct.ZSTDv07_customMem, ptr %2, i32 0, i32 2
  %81 = load ptr, ptr %80, align 8, !tbaa !87
  %82 = load ptr, ptr %8, align 8, !tbaa !12
  call void %79(ptr noundef %81, ptr noundef %82)
  %83 = getelementptr inbounds nuw %struct.ZSTDv07_customMem, ptr %2, i32 0, i32 1
  %84 = load ptr, ptr %83, align 8, !tbaa !85
  %85 = getelementptr inbounds nuw %struct.ZSTDv07_customMem, ptr %2, i32 0, i32 2
  %86 = load ptr, ptr %85, align 8, !tbaa !87
  %87 = load ptr, ptr %7, align 8, !tbaa !103
  call void %84(ptr noundef %86, ptr noundef %87)
  %88 = getelementptr inbounds nuw %struct.ZSTDv07_customMem, ptr %2, i32 0, i32 1
  %89 = load ptr, ptr %88, align 8, !tbaa !85
  %90 = getelementptr inbounds nuw %struct.ZSTDv07_customMem, ptr %2, i32 0, i32 2
  %91 = load ptr, ptr %90, align 8, !tbaa !87
  %92 = load ptr, ptr %9, align 8, !tbaa !67
  call void %89(ptr noundef %91, ptr noundef %92)
  store ptr null, ptr %4, align 8
  store i32 1, ptr %10, align 4
  br label %94

93:                                               ; preds = %66
  store i32 0, ptr %10, align 4
  br label %94

94:                                               ; preds = %93, %77
  call void @llvm.lifetime.end.p0(i64 8, ptr %11) #11
  %95 = load i32, ptr %10, align 4
  switch i32 %95, label %107 [
    i32 0, label %96
  ]

96:                                               ; preds = %94
  %97 = load ptr, ptr %8, align 8, !tbaa !12
  %98 = load ptr, ptr %7, align 8, !tbaa !103
  %99 = getelementptr inbounds nuw %struct.ZSTDv07_DDict_s, ptr %98, i32 0, i32 0
  store ptr %97, ptr %99, align 8, !tbaa !105
  %100 = load i64, ptr %6, align 8, !tbaa !3
  %101 = load ptr, ptr %7, align 8, !tbaa !103
  %102 = getelementptr inbounds nuw %struct.ZSTDv07_DDict_s, ptr %101, i32 0, i32 1
  store i64 %100, ptr %102, align 8, !tbaa !107
  %103 = load ptr, ptr %9, align 8, !tbaa !67
  %104 = load ptr, ptr %7, align 8, !tbaa !103
  %105 = getelementptr inbounds nuw %struct.ZSTDv07_DDict_s, ptr %104, i32 0, i32 2
  store ptr %103, ptr %105, align 8, !tbaa !108
  %106 = load ptr, ptr %7, align 8, !tbaa !103
  store ptr %106, ptr %4, align 8
  store i32 1, ptr %10, align 4
  br label %107

107:                                              ; preds = %96, %94, %50
  call void @llvm.lifetime.end.p0(i64 8, ptr %9) #11
  call void @llvm.lifetime.end.p0(i64 8, ptr %8) #11
  call void @llvm.lifetime.end.p0(i64 8, ptr %7) #11
  br label %108

108:                                              ; preds = %107, %28
  %109 = load ptr, ptr %4, align 8
  ret ptr %109
}

; Function Attrs: nounwind uwtable
define ptr @ZSTDv07_createDDict(ptr noundef %0, i64 noundef %1) #0 {
  %3 = alloca ptr, align 8
  %4 = alloca i64, align 8
  %5 = alloca %struct.ZSTDv07_customMem, align 8
  store ptr %0, ptr %3, align 8, !tbaa !12
  store i64 %1, ptr %4, align 8, !tbaa !3
  call void @llvm.lifetime.start.p0(i64 24, ptr %5) #11
  call void @llvm.memset.p0.i64(ptr align 8 %5, i8 0, i64 24, i1 false)
  %6 = load ptr, ptr %3, align 8, !tbaa !12
  %7 = load i64, ptr %4, align 8, !tbaa !3
  %8 = call ptr @ZSTDv07_createDDict_advanced(ptr noundef %6, i64 noundef %7, ptr noundef byval(%struct.ZSTDv07_customMem) align 8 %5)
  call void @llvm.lifetime.end.p0(i64 24, ptr %5) #11
  ret ptr %8
}