; Function Attrs: nounwind uwtable
define noalias noundef ptr @ZSTDv07_createDDict(ptr noundef readonly captures(none) %0, i64 noundef %1) local_unnamed_addr #1 {
  %3 = tail call noalias noundef dereferenceable_or_null(24) ptr @malloc(i64 noundef 24) #27
  %4 = tail call noalias noundef ptr @malloc(i64 noundef %1) #27
  %5 = tail call noalias noundef dereferenceable_or_null(152864) ptr @malloc(i64 noundef 152864) #27
  %.not.i.i = icmp eq ptr %5, null
  br i1 %.not.i.i, label %ZSTDv07_createDCtx_advanced.exit.thread.i, label %ZSTDv07_createDCtx_advanced.exit.i

ZSTDv07_createDCtx_advanced.exit.i:               ; preds = %2
  %6 = getelementptr inbounds nuw i8, ptr %5, i64 21728
  store ptr @ZSTDv07_defaultAllocFunction, ptr %6, align 8
  %.sroa.6.0..sroa_idx.i = getelementptr inbounds nuw i8, ptr %5, i64 21736
  store ptr @ZSTDv07_defaultFreeFunction, ptr %.sroa.6.0..sroa_idx.i, align 8
  %.sroa.7.0..sroa_idx.i = getelementptr inbounds nuw i8, ptr %5, i64 21744
  store ptr null, ptr %.sroa.7.0..sroa_idx.i, align 8
  %7 = getelementptr inbounds nuw i8, ptr %5, i64 21552
  store i64 5, ptr %7, align 8, !tbaa !62
  %8 = getelementptr inbounds nuw i8, ptr %5, i64 21604
  store i32 0, ptr %8, align 4, !tbaa !68
  %9 = getelementptr inbounds nuw i8, ptr %5, i64 21520
  %10 = getelementptr inbounds nuw i8, ptr %5, i64 5132
  tail call void @llvm.memset.p0.i64(ptr noundef nonnull align 8 dereferenceable(32) %9, i8 0, i64 32, i1 false)
  store i32 201326604, ptr %10, align 4, !tbaa !3
  %11 = getelementptr inbounds nuw i8, ptr %5, i64 21612
  store i32 0, ptr %11, align 4, !tbaa !69
  %12 = getelementptr inbounds nuw i8, ptr %5, i64 21608
  store i32 0, ptr %12, align 8, !tbaa !70
  %13 = getelementptr inbounds nuw i8, ptr %5, i64 21712
  store i32 0, ptr %13, align 8, !tbaa !71
  %14 = getelementptr inbounds nuw i8, ptr %5, i64 21560
  tail call void @llvm.memcpy.p0.p0.i64(ptr noundef nonnull align 4 dereferenceable(12) %14, ptr noundef nonnull align 4 dereferenceable(12) @repStartValue, i64 12, i1 false), !tbaa !3
  %15 = icmp ne ptr %4, null
  %16 = icmp ne ptr %3, null
  %or.cond7.i = and i1 %16, %15
  br i1 %or.cond7.i, label %17, label %ZSTDv07_createDCtx_advanced.exit.thread.i

ZSTDv07_createDCtx_advanced.exit.thread.i:        ; preds = %ZSTDv07_createDCtx_advanced.exit.i, %2
  tail call void @free(ptr noundef %4) #26
  tail call void @free(ptr noundef %3) #26
  tail call void @free(ptr noundef %5) #26
  br label %ZSTDv07_createDDict_advanced.exit

17:                                               ; preds = %ZSTDv07_createDCtx_advanced.exit.i
  tail call void @llvm.memcpy.p0.p0.i64(ptr nonnull align 1 %4, ptr readonly align 1 %0, i64 %1, i1 false)
  %18 = tail call i64 @ZSTDv07_decompressBegin_usingDict(ptr noundef nonnull %5, ptr noundef nonnull %4, i64 noundef %1)
  %19 = icmp ult i64 %18, -119
  br i1 %19, label %.critedge.i, label %20

20:                                               ; preds = %17
  tail call void @free(ptr noundef nonnull %4) #26
  tail call void @free(ptr noundef nonnull %3) #26
  tail call void @free(ptr noundef nonnull %5) #26
  br label %ZSTDv07_createDDict_advanced.exit

.critedge.i:                                      ; preds = %17
  store ptr %4, ptr %3, align 8, !tbaa !104
  %21 = getelementptr inbounds nuw i8, ptr %3, i64 8
  store i64 %1, ptr %21, align 8, !tbaa !107
  %22 = getelementptr inbounds nuw i8, ptr %3, i64 16
  store ptr %5, ptr %22, align 8, !tbaa !108
  br label %ZSTDv07_createDDict_advanced.exit

ZSTDv07_createDDict_advanced.exit:                ; preds = %ZSTDv07_createDCtx_advanced.exit.thread.i, %20, %.critedge.i
  %.0.i = phi ptr [ %3, %.critedge.i ], [ null, %20 ], [ null, %ZSTDv07_createDCtx_advanced.exit.thread.i ]
  ret ptr %.0.i
}